; Function Attrs: nofree norecurse nosync nounwind memory(read, inaccessiblemem: none) uwtable
define hidden i32 @MuxImageCount(ptr noundef readonly captures(address_is_null) %0, i32 noundef %1) local_unnamed_addr #8 {
  %.not19 = icmp eq ptr %0, null
  br i1 %.not19, label %._crit_edge25, label %.lr.ph24

.lr.ph24:                                         ; preds = %2, %22
  %.022 = phi i32 [ %.3, %22 ], [ 0, %2 ]
  %.01220 = phi ptr [ %24, %22 ], [ %0, %2 ]
  switch i32 %1, label %9 [
    i32 10, label %3
    i32 3, label %GetChunkListFromId.exit
    i32 5, label %5
    i32 6, label %7
  ]

3:                                                ; preds = %.lr.ph24
  %4 = add nsw i32 %.022, 1
  br label %22

5:                                                ; preds = %.lr.ph24
  %6 = getelementptr inbounds nuw i8, ptr %.01220, i64 8
  br label %GetChunkListFromId.exit

7:                                                ; preds = %.lr.ph24
  %8 = getelementptr inbounds nuw i8, ptr %.01220, i64 16
  br label %GetChunkListFromId.exit

9:                                                ; preds = %.lr.ph24
  unreachable

GetChunkListFromId.exit:                          ; preds = %.lr.ph24, %5, %7
  %.0.i = phi ptr [ %8, %7 ], [ %6, %5 ], [ %.01220, %.lr.ph24 ]
  %10 = load ptr, ptr %.0.i, align 8, !tbaa !28
  %.not15 = icmp eq ptr %10, null
  br i1 %.not15, label %22, label %11

11:                                               ; preds = %GetChunkListFromId.exit
  %12 = load i32, ptr %10, align 8, !tbaa !22
  %13 = icmp eq i32 %12, 1480085590
  br i1 %13, label %._crit_edge, label %.lr.ph

.lr.ph:                                           ; preds = %11, %14
  %indvars.iv.i18 = phi i64 [ %indvars.iv.next.i, %14 ], [ 0, %11 ]
  %indvars.iv.next.i = add nuw nsw i64 %indvars.iv.i18, 1
  %exitcond.i = icmp eq i64 %indvars.iv.next.i, 9
  br i1 %exitcond.i, label %ChunkGetIdFromTag.exit, label %14, !llvm.loop !19

14:                                               ; preds = %.lr.ph
  %15 = getelementptr inbounds nuw [11 x %struct.ChunkInfo], ptr @kChunks, i64 0, i64 %indvars.iv.next.i
  %16 = load i32, ptr %15, align 4, !tbaa !15
  %17 = icmp eq i32 %12, %16
  br i1 %17, label %._crit_edge, label %.lr.ph, !llvm.loop !19

._crit_edge:                                      ; preds = %14, %11
  %.lcssa = phi ptr [ @kChunks, %11 ], [ %15, %14 ]
  %18 = getelementptr inbounds nuw i8, ptr %.lcssa, i64 4
  %19 = load i32, ptr %18, align 4, !tbaa !20
  br label %ChunkGetIdFromTag.exit

ChunkGetIdFromTag.exit:                           ; preds = %.lr.ph, %._crit_edge
  %.06.i = phi i32 [ %19, %._crit_edge ], [ 9, %.lr.ph ]
  %20 = icmp eq i32 %.06.i, %1
  %21 = zext i1 %20 to i32
  %spec.select = add nsw i32 %.022, %21
  br label %22

22:                                               ; preds = %GetChunkListFromId.exit, %ChunkGetIdFromTag.exit, %3
  %.3 = phi i32 [ %4, %3 ], [ %spec.select, %ChunkGetIdFromTag.exit ], [ %.022, %GetChunkListFromId.exit ]
  %23 = getelementptr inbounds nuw i8, ptr %.01220, i64 48
  %24 = load ptr, ptr %23, align 8, !tbaa !39
  %.not = icmp eq ptr %24, null
  br i1 %.not, label %._crit_edge25, label %.lr.ph24, !llvm.loop !42

._crit_edge25:                                    ; preds = %22, %2
  %.0.lcssa = phi i32 [ 0, %2 ], [ %.3, %22 ]
  ret i32 %.0.lcssa
}